target datalayout = "e-m:e-p270:32:32-p271:32:32-p272:64:64-i64:64-i128:128-f80:128-n8:16:32:64-S128"
target triple = "x86_64-pc-linux-gnu"

@duckdb_je_sz_index2size_tab = external global [232 x i64], align 16

; Function Attrs: alwaysinline nounwind uwtable
define internal i64 @sz_index2size_lookup_impl(i32 noundef %0) #2 {
  %2 = alloca i32, align 4
  store i32 %0, ptr %2, align 4, !tbaa !19
  %3 = load i32, ptr %2, align 4, !tbaa !19
  %4 = zext i32 %3 to i64
  %5 = getelementptr inbounds nuw [232 x i64], ptr @duckdb_je_sz_index2size_tab, i64 0, i64 %4
  %6 = load i64, ptr %5, align 8, !tbaa !13
  ret i64 %6
}

; Function Attrs: alwaysinline nounwind uwtable
define internal i64 @sz_index2size_lookup(i32 noundef %0) #2 {
  %2 = alloca i32, align 4
  %3 = alloca i64, align 8
  store i32 %0, ptr %2, align 4, !tbaa !19
  call void @llvm.lifetime.start.p0(i64 8, ptr %3) #13
  %4 = load i32, ptr %2, align 4, !tbaa !19
  %5 = call i64 @sz_index2size_lookup_impl(i32 noundef %4)
  store i64 %5, ptr %3, align 8, !tbaa !13
  br label %6

6:                                                ; preds = %1
  br label %7

7:                                                ; preds = %6
  br label %8

8:                                                ; preds = %7
  %9 = load i64, ptr %3, align 8, !tbaa !13
  call void @llvm.lifetime.end.p0(i64 8, ptr %3) #13
  ret i64 %9
}

; Function Attrs: alwaysinline nounwind uwtable
define internal i64 @sz_index2size(i32 noundef %0) #2 {
  %2 = alloca i32, align 4
  store i32 %0, ptr %2, align 4, !tbaa !19
  br label %3

3:                                                ; preds = %1
  br label %4

4:                                                ; preds = %3
  %5 = load i32, ptr %2, align 4, !tbaa !19
  %6 = call i64 @sz_index2size_lookup(i32 noundef %5)
  ret i64 %6
}

; Function Attrs: nounwind uwtable
define internal i32 @arenas_lextent_i_size_ctl(ptr noundef %0, ptr noundef %1, i64 noundef %2, ptr noundef %3, ptr noundef %4, ptr noundef %5, i64 noundef %6) #0 {
  %8 = alloca i32, align 4
  %9 = alloca ptr, align 8
  %10 = alloca ptr, align 8
  %11 = alloca i64, align 8
  %12 = alloca ptr, align 8
  %13 = alloca ptr, align 8
  %14 = alloca ptr, align 8
  %15 = alloca i64, align 8
  %16 = alloca i32, align 4
  %17 = alloca i64, align 8
  %18 = alloca i64, align 8
  %19 = alloca i32, align 4
  store ptr %0, ptr %9, align 8, !tbaa !3
  store ptr %1, ptr %10, align 8, !tbaa !11
  store i64 %2, ptr %11, align 8, !tbaa !13
  store ptr %3, ptr %12, align 8, !tbaa !10
  store ptr %4, ptr %13, align 8, !tbaa !11
  store ptr %5, ptr %14, align 8, !tbaa !10
  store i64 %6, ptr %15, align 8, !tbaa !13
  call void @llvm.lifetime.start.p0(i64 4, ptr %16) #13
  call void @llvm.lifetime.start.p0(i64 8, ptr %17) #13
  br label %20

20:                                               ; preds = %7
  %21 = load ptr, ptr %14, align 8, !tbaa !10
  %22 = icmp ne ptr %21, null
  br i1 %22, label %26, label %23

23:                                               ; preds = %20
  %24 = load i64, ptr %15, align 8, !tbaa !13
  %25 = icmp ne i64 %24, 0
  br i1 %25, label %26, label %27

26:                                               ; preds = %23, %20
  store i32 1, ptr %16, align 4, !tbaa !19
  br label %69

27:                                               ; preds = %23
  br label %28

28:                                               ; preds = %27
  br label %29

29:                                               ; preds = %28
  %30 = load ptr, ptr %10, align 8, !tbaa !11
  %31 = getelementptr inbounds i64, ptr %30, i64 2
  %32 = load i64, ptr %31, align 8, !tbaa !13
  %33 = trunc i64 %32 to i32
  %34 = zext i32 %33 to i64
  %35 = add i64 36, %34
  %36 = trunc i64 %35 to i32
  %37 = call i64 @sz_index2size(i32 noundef %36)
  store i64 %37, ptr %17, align 8, !tbaa !13
  br label %38

38:                                               ; preds = %29
  %39 = load ptr, ptr %12, align 8, !tbaa !10
  %40 = icmp ne ptr %39, null
  br i1 %40, label %41, label %66

41:                                               ; preds = %38
  %42 = load ptr, ptr %13, align 8, !tbaa !11
  %43 = icmp ne ptr %42, null
  br i1 %43, label %44, label %66

44:                                               ; preds = %41
  %45 = load ptr, ptr %13, align 8, !tbaa !11
  %46 = load i64, ptr %45, align 8, !tbaa !13
  %47 = icmp ne i64 %46, 8
  br i1 %47, label %48, label %63

48:                                               ; preds = %44
  call void @llvm.lifetime.start.p0(i64 8, ptr %18) #13
  %49 = load ptr, ptr %13, align 8, !tbaa !11
  %50 = load i64, ptr %49, align 8, !tbaa !13
  %51 = icmp ule i64 8, %50
  br i1 %51, label %52, label %53

52:                                               ; preds = %48
  br label %56

53:                                               ; preds = %48
  %54 = load ptr, ptr %13, align 8, !tbaa !11
  %55 = load i64, ptr %54, align 8, !tbaa !13
  br label %56

56:                                               ; preds = %53, %52
  %57 = phi i64 [ 8, %52 ], [ %55, %53 ]
  store i64 %57, ptr %18, align 8, !tbaa !13
  %58 = load ptr, ptr %12, align 8, !tbaa !10
  %59 = load i64, ptr %18, align 8, !tbaa !13
  call void @llvm.memcpy.p0.p0.i64(ptr align 1 %58, ptr align 1 %17, i64 %59, i1 false)
  %60 = load i64, ptr %18, align 8, !tbaa !13
  %61 = load ptr, ptr %13, align 8, !tbaa !11
  store i64 %60, ptr %61, align 8, !tbaa !13
  store i32 22, ptr %16, align 4, !tbaa !19
  store i32 4, ptr %19, align 4
  call void @llvm.lifetime.end.p0(i64 8, ptr %18) #13
  %62 = load i32, ptr %19, align 4
  switch i32 %62, label %71 [
    i32 4, label %69
  ]

63:                                               ; preds = %44
  %64 = load i64, ptr %17, align 8, !tbaa !13
  %65 = load ptr, ptr %12, align 8, !tbaa !10
  store i64 %64, ptr %65, align 8, !tbaa !13
  br label %66

66:                                               ; preds = %63, %41, %38
  br label %67

67:                                               ; preds = %66
  br label %68

68:                                               ; preds = %67
  store i32 0, ptr %16, align 4, !tbaa !19
  br label %69

69:                                               ; preds = %68, %56, %26
  %70 = load i32, ptr %16, align 4, !tbaa !19
  store i32 %70, ptr %8, align 4
  store i32 1, ptr %19, align 4
  br label %71

71:                                               ; preds = %69, %56
  call void @llvm.lifetime.end.p0(i64 8, ptr %17) #13
  call void @llvm.lifetime.end.p0(i64 4, ptr %16) #13
  %72 = load i32, ptr %8, align 4
  ret i32 %72
}