; Function Attrs: mustprogress nofree norecurse nosync nounwind willreturn memory(read, argmem: readwrite, inaccessiblemem: none) uwtable
define internal range(i32 0, 23) i32 @arenas_lextent_i_size_ctl(ptr readnone captures(none) %0, ptr noundef readonly captures(none) %1, i64 %2, ptr noundef writeonly captures(address_is_null) %3, ptr noundef captures(address_is_null) %4, ptr noundef readnone captures(address_is_null) %5, i64 noundef %6) #11 {
  %8 = alloca i64, align 8
  call void @llvm.lifetime.start.p0(i64 8, ptr nonnull %8)
  %9 = icmp ne ptr %5, null
  %10 = icmp ne i64 %6, 0
  %or.cond = or i1 %9, %10
  br i1 %or.cond, label %24, label %11

11:                                               ; preds = %7
  %12 = getelementptr inbounds nuw i8, ptr %1, i64 16
  %13 = load i64, ptr %12, align 8, !tbaa !3
  %14 = add i64 %13, 36
  %15 = and i64 %14, 4294967295
  %16 = getelementptr inbounds nuw [232 x i64], ptr @duckdb_je_sz_index2size_tab, i64 0, i64 %15
  %17 = load i64, ptr %16, align 8, !tbaa !3
  store i64 %17, ptr %8, align 8, !tbaa !3
  %18 = icmp ne ptr %3, null
  %19 = icmp ne ptr %4, null
  %or.cond3 = and i1 %18, %19
  br i1 %or.cond3, label %20, label %24

20:                                               ; preds = %11
  %21 = load i64, ptr %4, align 8, !tbaa !3
  %.not = icmp eq i64 %21, 8
  br i1 %.not, label %23, label %22

22:                                               ; preds = %20
  %spec.select = tail call i64 @llvm.umin.i64(i64 %21, i64 8)
  call void @llvm.memcpy.p0.p0.i64(ptr nonnull align 1 %3, ptr nonnull align 8 %8, i64 %spec.select, i1 false)
  store i64 %spec.select, ptr %4, align 8, !tbaa !3
  br label %24

23:                                               ; preds = %20
  store i64 %17, ptr %3, align 8, !tbaa !3
  br label %24

24:                                               ; preds = %22, %7, %23, %11
  %.019 = phi i32 [ 22, %22 ], [ 1, %7 ], [ 0, %23 ], [ 0, %11 ]
  call void @llvm.lifetime.end.p0(i64 8, ptr nonnull %8)
  ret i32 %.019
}